ccopy_reg
_reconstructor
p0
(cterminalapp
ConcreteClass
p1
c__builtin__
object
p2
Ntp3
Rp4
(dp5
S'received_data'
p6
(dp7
S'data'
p8
(dp9
S'content'
p10
S'Hi...string!!'
p11
sS'date'
p12
S'27'
p13
sS'time'
p14
S'4:30'
p15
sS'requestId'
p16
S'12'
p17
sS'sender'
p18
S'ME'
p19
ssS'command'
p20
S'takephoto'
p21
sg18
S'my laptop'
p22
sg16
S'123'
p23
sS'receiver'
p24
S'my mobile'
p25
ssg20
g21
sg18
(idevice
Device
p26
(dp27
S'device_name'
p28
g25
sbsS'req_id'
p29
g17
sg24
(idevice
Device
p30
(dp31
g28
g25
sbsb.