ccopy_reg
_reconstructor
p0
(cphotoapp
ConcreteClass
p1
c__builtin__
object
p2
Ntp3
Rp4
(dp5
S'command'
p6
S'takephoto'
p7
sS'sender'
p8
(idevice
Device
p9
(dp10
S'device_name'
p11
S'my mobile'
p12
sbsS'req_id'
p13
S'12'
p14
sS'receiver'
p15
(idevice
Device
p16
(dp17
g11
g12
sbsb.